; Function Attrs: nounwind uwtable
define noalias nonnull ptr @l_Float32_ofScientific___boxed(ptr noundef %0, ptr noundef %1, ptr noundef %2) #0 {
  %4 = ptrtoint ptr %1 to i64
  %5 = lshr i64 %4, 1
  %6 = trunc i64 %5 to i8
  %7 = and i64 %4, 1
  %.not = icmp eq i64 %7, 0
  br i1 %.not, label %8, label %lean_dec.exit7

8:                                                ; preds = %3
  %9 = load i32, ptr %1, align 4, !tbaa !5
  %10 = icmp sgt i32 %9, 1
  br i1 %10, label %11, label %13, !prof !10

11:                                               ; preds = %8
  %12 = add nsw i32 %9, -1
  store i32 %12, ptr %1, align 4, !tbaa !5
  br label %lean_dec.exit7

13:                                               ; preds = %8
  %.not.i = icmp eq i32 %9, 0
  br i1 %.not.i, label %lean_dec.exit7, label %14

14:                                               ; preds = %13
  tail call void @lean_dec_ref_cold(ptr noundef nonnull %1) #4
  br label %lean_dec.exit7

lean_dec.exit7:                                   ; preds = %14, %13, %11, %3
  %15 = tail call float @l_Float32_ofScientific(ptr noundef %0, i8 noundef zeroext %6, ptr noundef %2)
  %16 = ptrtoint ptr %0 to i64
  %17 = and i64 %16, 1
  %.not10 = icmp eq i64 %17, 0
  br i1 %.not10, label %18, label %lean_dec.exit

18:                                               ; preds = %lean_dec.exit7
  %19 = load i32, ptr %0, align 4, !tbaa !5
  %20 = icmp sgt i32 %19, 1
  br i1 %20, label %21, label %23, !prof !10

21:                                               ; preds = %18
  %22 = add nsw i32 %19, -1
  store i32 %22, ptr %0, align 4, !tbaa !5
  br label %lean_dec.exit

23:                                               ; preds = %18
  %.not.i8 = icmp eq i32 %19, 0
  br i1 %.not.i8, label %lean_dec.exit, label %24

24:                                               ; preds = %23
  tail call void @lean_dec_ref_cold(ptr noundef nonnull %0) #4
  br label %lean_dec.exit

lean_dec.exit:                                    ; preds = %24, %23, %21, %lean_dec.exit7
  tail call void @lean_inc_heartbeat() #4
  %25 = tail call noalias ptr @mi_malloc_small(i64 noundef 16) #4
  %26 = icmp eq ptr %25, null
  br i1 %26, label %27, label %lean_box_float32.exit

27:                                               ; preds = %lean_dec.exit
  tail call void @lean_internal_panic_out_of_memory() #5
  unreachable

lean_box_float32.exit:                            ; preds = %lean_dec.exit
  %28 = getelementptr inbounds nuw i8, ptr %25, i64 4
  %29 = getelementptr inbounds nuw i8, ptr %25, i64 8
  store i64 0, ptr %29, align 8, !tbaa !15
  store i32 1, ptr %25, align 4, !tbaa !5
  store i32 16, ptr %28, align 4
  store float %15, ptr %29, align 4, !tbaa !17
  ret ptr %25
}